; Function Attrs: mustprogress nofree norecurse nosync nounwind willreturn memory(read, inaccessiblemem: none) uwtable
define internal noundef float @_ZN2cv6detail12_GLOBAL__N_113diffL2Square4IfEEfRKNS_3MatEiiS5_ii(ptr noundef nonnull readonly align 8 captures(none) dereferenceable(96) %0, i32 noundef %1, i32 noundef %2, ptr noundef nonnull readonly align 8 captures(none) dereferenceable(96) %3, i32 noundef %4, i32 noundef %5) unnamed_addr #12 {
  %7 = getelementptr inbounds nuw i8, ptr %0, i64 16
  %8 = load ptr, ptr %7, align 8, !tbaa !77
  %9 = getelementptr inbounds nuw i8, ptr %0, i64 72
  %10 = load ptr, ptr %9, align 8, !tbaa !83
  %11 = load i64, ptr %10, align 8, !tbaa !84
  %12 = sext i32 %1 to i64
  %13 = mul i64 %11, %12
  %14 = getelementptr inbounds nuw i8, ptr %8, i64 %13
  %15 = getelementptr inbounds nuw i8, ptr %3, i64 16
  %16 = load ptr, ptr %15, align 8, !tbaa !77
  %17 = getelementptr inbounds nuw i8, ptr %3, i64 72
  %18 = load ptr, ptr %17, align 8, !tbaa !83
  %19 = load i64, ptr %18, align 8, !tbaa !84
  %20 = sext i32 %4 to i64
  %21 = mul i64 %19, %20
  %22 = getelementptr inbounds nuw i8, ptr %16, i64 %21
  %23 = shl nsw i32 %2, 2
  %24 = sext i32 %23 to i64
  %25 = getelementptr inbounds float, ptr %14, i64 %24
  %26 = load float, ptr %25, align 4, !tbaa !292
  %27 = shl nsw i32 %5, 2
  %28 = sext i32 %27 to i64
  %29 = getelementptr inbounds float, ptr %22, i64 %28
  %30 = load float, ptr %29, align 4, !tbaa !292
  %31 = fsub float %26, %30
  %32 = fmul float %31, %31
  %33 = or disjoint i32 %23, 1
  %34 = sext i32 %33 to i64
  %35 = getelementptr inbounds float, ptr %14, i64 %34
  %36 = load float, ptr %35, align 4, !tbaa !292
  %37 = or disjoint i32 %27, 1
  %38 = sext i32 %37 to i64
  %39 = getelementptr inbounds float, ptr %22, i64 %38
  %40 = load float, ptr %39, align 4, !tbaa !292
  %41 = fsub float %36, %40
  %42 = fmul float %41, %41
  %43 = fadd float %32, %42
  %44 = or disjoint i32 %23, 2
  %45 = sext i32 %44 to i64
  %46 = getelementptr inbounds float, ptr %14, i64 %45
  %47 = load float, ptr %46, align 4, !tbaa !292
  %48 = or disjoint i32 %27, 2
  %49 = sext i32 %48 to i64
  %50 = getelementptr inbounds float, ptr %22, i64 %49
  %51 = load float, ptr %50, align 4, !tbaa !292
  %52 = fsub float %47, %51
  %53 = fmul float %52, %52
  %54 = fadd float %43, %53
  ret float %54
}